target datalayout = "e-m:e-p270:32:32-p271:32:32-p272:64:64-i64:64-i128:128-f80:128-n8:16:32:64-S128"
target triple = "x86_64-pc-linux-gnu"

%struct._packet_info = type { ptr, ptr, i32, i32, %struct.nstime_t, %struct.nstime_t, %struct.nstime_t, i8, ptr, ptr, ptr, ptr, %struct._address, %struct._address, %struct._address, %struct._address, %struct._address, %struct._address, i32, ptr, i8, [3 x i8], %struct.anon, i32, i32, i32, i32, ptr, i8, ptr, ptr, i16, i16, i32, i32, i16, i32, i32, ptr, ptr, ptr, i8, i8, i16, i16, i16, i32, i16, i16, ptr, ptr, ptr, ptr, ptr, i32, i32 }
%struct.nstime_t = type { i64, i32 }
%struct._address = type { i32, i32, ptr, ptr }
%struct.anon = type { i8, [3 x i8] }
%struct.pcp_conv_info_t = type { ptr, ptr, i32, i32, i8 }
%struct._value_string = type { i32, ptr }

@hf_pcp_features_flags = internal global i32 0, align 4
@ett_pcp_start_features = internal global i32 0, align 4
@proto_pcp = internal global i32 0, align 4
@.str.388 = private unnamed_addr constant [15 x i8] c" Features=[%s]\00", align 1
@.str.389 = private unnamed_addr constant [1 x i8] zeroinitializer, align 1
@.str.390 = private unnamed_addr constant [5 x i8] c"%s, \00", align 1
@.str.402 = private unnamed_addr constant [29 x i8] c"%s:%u: failed assertion \22%s\22\00", align 1
@.str.403 = private unnamed_addr constant [29 x i8] c"epan/dissectors/packet-pcp.c\00", align 1
@.str.404 = private unnamed_addr constant [13 x i8] c"conversation\00", align 1
@.str.405 = private unnamed_addr constant [14 x i8] c"pcp_conv_info\00", align 1

; Function Attrs: inlinehint nounwind null_pointer_is_valid sspstrong uwtable
define internal i32 @client_to_server(ptr noundef %0) #6 {
  %2 = alloca ptr, align 8
  store ptr %0, ptr %2, align 8
  %3 = load ptr, ptr %2, align 8
  %4 = getelementptr inbounds nuw %struct._packet_info, ptr %3, i32 0, i32 25
  %5 = load i32, ptr %4, align 8
  %6 = icmp eq i32 %5, 44321
  br i1 %6, label %12, label %7

7:                                                ; preds = %1
  %8 = load ptr, ptr %2, align 8
  %9 = getelementptr inbounds nuw %struct._packet_info, ptr %8, i32 0, i32 25
  %10 = load i32, ptr %9, align 8
  %11 = icmp eq i32 %10, 44322
  br label %12

12:                                               ; preds = %7, %1
  %13 = phi i1 [ true, %1 ], [ %11, %7 ]
  %14 = zext i1 %13 to i32
  ret i32 %14
}

; Function Attrs: null_pointer_is_valid sspstrong uwtable
define internal ptr @get_pcp_conversation_info(ptr noundef %0) #0 {
  %2 = alloca ptr, align 8
  %3 = alloca ptr, align 8
  %4 = alloca ptr, align 8
  store ptr %0, ptr %2, align 8
  call void @llvm.lifetime.start.p0(i64 8, ptr %3) #8
  call void @llvm.lifetime.start.p0(i64 8, ptr %4) #8
  %5 = load ptr, ptr %2, align 8
  %6 = call ptr @find_conversation_pinfo(ptr noundef %5, i32 noundef 0)
  store ptr %6, ptr %3, align 8
  %7 = load ptr, ptr %3, align 8
  %8 = icmp ne ptr %7, null
  br i1 %8, label %9, label %10

9:                                                ; preds = %1
  br label %12

10:                                               ; preds = %1
  call void (ptr, ...) @proto_report_dissector_bug(ptr noundef @.str.402, ptr noundef @.str.403, i32 noundef 607, ptr noundef @.str.404) #10
  unreachable

11:                                               ; No predecessors!
  br label %12

12:                                               ; preds = %11, %9
  %13 = load ptr, ptr %3, align 8
  %14 = load i32, ptr @proto_pcp, align 4
  %15 = call ptr @conversation_get_proto_data(ptr noundef %13, i32 noundef %14)
  store ptr %15, ptr %4, align 8
  %16 = load ptr, ptr %4, align 8
  %17 = icmp ne ptr %16, null
  br i1 %17, label %18, label %19

18:                                               ; preds = %12
  br label %21

19:                                               ; preds = %12
  call void (ptr, ...) @proto_report_dissector_bug(ptr noundef @.str.402, ptr noundef @.str.403, i32 noundef 612, ptr noundef @.str.405) #10
  unreachable

20:                                               ; No predecessors!
  br label %21

21:                                               ; preds = %20, %18
  %22 = load ptr, ptr %4, align 8
  call void @llvm.lifetime.end.p0(i64 8, ptr %4) #8
  call void @llvm.lifetime.end.p0(i64 8, ptr %3) #8
  ret ptr %22
}

; Function Attrs: inlinehint null_pointer_is_valid sspstrong uwtable
define internal i32 @server_to_client(ptr noundef %0) #5 {
  %2 = alloca ptr, align 8
  store ptr %0, ptr %2, align 8
  %3 = load ptr, ptr %2, align 8
  %4 = call i32 @client_to_server(ptr noundef %3)
  %5 = icmp ne i32 %4, 0
  %6 = xor i1 %5, true
  %7 = zext i1 %6 to i32
  ret i32 %7
}

; Function Attrs: null_pointer_is_valid sspstrong uwtable
define internal ptr @get_pcp_features_to_string(ptr noundef %0, i16 noundef zeroext %1) #0 {
  %3 = alloca ptr, align 8
  %4 = alloca i16, align 2
  %5 = alloca ptr, align 8
  %6 = alloca ptr, align 8
  %7 = alloca i64, align 8
  store ptr %0, ptr %3, align 8
  store i16 %1, ptr %4, align 2
  call void @llvm.lifetime.start.p0(i64 8, ptr %5) #8
  call void @llvm.lifetime.start.p0(i64 8, ptr %6) #8
  call void @llvm.lifetime.start.p0(i64 8, ptr %7) #8
  %8 = load ptr, ptr %3, align 8
  %9 = call noalias ptr @wmem_strbuf_new(ptr noundef %8, ptr noundef @.str.389)
  store ptr %9, ptr %6, align 8
  store ptr @pcp_feature_flags, ptr %5, align 8
  br label %10

10:                                               ; preds = %28, %2
  %11 = load ptr, ptr %5, align 8
  %12 = getelementptr inbounds nuw %struct._value_string, ptr %11, i32 0, i32 0
  %13 = load i32, ptr %12, align 8
  %14 = icmp ne i32 %13, 0
  br i1 %14, label %15, label %31

15:                                               ; preds = %10
  %16 = load i16, ptr %4, align 2
  %17 = zext i16 %16 to i32
  %18 = load ptr, ptr %5, align 8
  %19 = getelementptr inbounds nuw %struct._value_string, ptr %18, i32 0, i32 0
  %20 = load i32, ptr %19, align 8
  %21 = and i32 %17, %20
  %22 = icmp ne i32 %21, 0
  br i1 %22, label %23, label %28

23:                                               ; preds = %15
  %24 = load ptr, ptr %6, align 8
  %25 = load ptr, ptr %5, align 8
  %26 = getelementptr inbounds nuw %struct._value_string, ptr %25, i32 0, i32 1
  %27 = load ptr, ptr %26, align 8
  call void (ptr, ptr, ...) @wmem_strbuf_append_printf(ptr noundef %24, ptr noundef @.str.390, ptr noundef %27)
  br label %28

28:                                               ; preds = %23, %15
  %29 = load ptr, ptr %5, align 8
  %30 = getelementptr %struct._value_string, ptr %29, i32 1
  store ptr %30, ptr %5, align 8
  br label %10, !llvm.loop !16

31:                                               ; preds = %10
  %32 = load ptr, ptr %6, align 8
  %33 = call i64 @wmem_strbuf_get_len(ptr noundef %32)
  store i64 %33, ptr %7, align 8
  %34 = load i64, ptr %7, align 8
  %35 = icmp ugt i64 %34, 2
  br i1 %35, label %36, label %40

36:                                               ; preds = %31
  %37 = load ptr, ptr %6, align 8
  %38 = load i64, ptr %7, align 8
  %39 = sub i64 %38, 2
  call void @wmem_strbuf_truncate(ptr noundef %37, i64 noundef %39)
  br label %40

40:                                               ; preds = %36, %31
  %41 = load ptr, ptr %6, align 8
  %42 = call ptr @wmem_strbuf_get_str(ptr noundef %41)
  call void @llvm.lifetime.end.p0(i64 8, ptr %7) #8
  call void @llvm.lifetime.end.p0(i64 8, ptr %6) #8
  call void @llvm.lifetime.end.p0(i64 8, ptr %5) #8
  ret ptr %42
}

; Function Attrs: null_pointer_is_valid sspstrong uwtable
define internal i32 @dissect_pcp_partial_features(ptr noundef %0, ptr noundef %1, ptr noundef %2, i32 noundef %3) #0 {
  %5 = alloca ptr, align 8
  %6 = alloca ptr, align 8
  %7 = alloca ptr, align 8
  %8 = alloca i32, align 4
  %9 = alloca i16, align 2
  %10 = alloca ptr, align 8
  %11 = alloca ptr, align 8
  store ptr %0, ptr %5, align 8
  store ptr %1, ptr %6, align 8
  store ptr %2, ptr %7, align 8
  store i32 %3, ptr %8, align 4
  call void @llvm.lifetime.start.p0(i64 2, ptr %9) #8
  call void @llvm.lifetime.start.p0(i64 8, ptr %10) #8
  %12 = load ptr, ptr %5, align 8
  %13 = load i32, ptr %8, align 4
  %14 = call zeroext i16 @tvb_get_ntohs(ptr noundef %12, i32 noundef %13)
  store i16 %14, ptr %9, align 2
  %15 = load ptr, ptr %6, align 8
  %16 = getelementptr inbounds nuw %struct._packet_info, ptr %15, i32 0, i32 51
  %17 = load ptr, ptr %16, align 8
  %18 = load i16, ptr %9, align 2
  %19 = call ptr @get_pcp_features_to_string(ptr noundef %17, i16 noundef zeroext %18)
  store ptr %19, ptr %10, align 8
  %20 = load ptr, ptr %6, align 8
  %21 = getelementptr inbounds nuw %struct._packet_info, ptr %20, i32 0, i32 1
  %22 = load ptr, ptr %21, align 8
  %23 = load ptr, ptr %10, align 8
  call void (ptr, i32, ptr, ...) @col_append_fstr(ptr noundef %22, i32 noundef 25, ptr noundef @.str.388, ptr noundef %23)
  %24 = load ptr, ptr %7, align 8
  %25 = load ptr, ptr %5, align 8
  %26 = load i32, ptr %8, align 4
  %27 = load i32, ptr @hf_pcp_features_flags, align 4
  %28 = load i32, ptr @ett_pcp_start_features, align 4
  %29 = call ptr @proto_tree_add_bitmask(ptr noundef %24, ptr noundef %25, i32 noundef %26, i32 noundef %27, i32 noundef %28, ptr noundef @dissect_pcp_partial_features.pcp_feature_flags_header_fields, i32 noundef 0)
  %30 = load i32, ptr %8, align 4
  %31 = add i32 %30, 2
  store i32 %31, ptr %8, align 4
  %32 = load i16, ptr %9, align 2
  %33 = zext i16 %32 to i32
  %34 = and i32 %33, 512
  %35 = icmp eq i32 %34, 512
  br i1 %35, label %36, label %45

36:                                               ; preds = %4
  %37 = load ptr, ptr %6, align 8
  %38 = call i32 @server_to_client(ptr noundef %37)
  %39 = icmp ne i32 %38, 0
  br i1 %39, label %40, label %45

40:                                               ; preds = %36
  call void @llvm.lifetime.start.p0(i64 8, ptr %11) #8
  %41 = load ptr, ptr %6, align 8
  %42 = call ptr @get_pcp_conversation_info(ptr noundef %41)
  store ptr %42, ptr %11, align 8
  %43 = load ptr, ptr %11, align 8
  %44 = getelementptr inbounds nuw %struct.pcp_conv_info_t, ptr %43, i32 0, i32 4
  store i8 1, ptr %44, align 8
  call void @llvm.lifetime.end.p0(i64 8, ptr %11) #8
  br label %45

45:                                               ; preds = %40, %36, %4
  %46 = load i32, ptr %8, align 4
  call void @llvm.lifetime.end.p0(i64 8, ptr %10) #8
  call void @llvm.lifetime.end.p0(i64 2, ptr %9) #8
  ret i32 %46
}