; Function Attrs: null_pointer_is_valid sspstrong uwtable
define internal fastcc noundef i32 @dissect_pcp_partial_features(ptr noundef %0, ptr noundef %1, ptr noundef %2, i32 noundef %3) unnamed_addr #0 {
  %5 = tail call zeroext i16 @tvb_get_ntohs(ptr noundef %0, i32 noundef %3)
  %6 = getelementptr inbounds nuw i8, ptr %1, i64 408
  %7 = load ptr, ptr %6, align 8
  %8 = tail call noalias ptr @wmem_strbuf_new(ptr noundef %7, ptr noundef nonnull @.str.389)
  %9 = zext i16 %5 to i32
  br label %10

10:                                               ; preds = %16, %4
  %11 = phi i32 [ 1, %4 ], [ %18, %16 ]
  %.014.i = phi ptr [ @pcp_feature_flags, %4 ], [ %17, %16 ]
  %12 = and i32 %11, %9
  %.not13.i = icmp eq i32 %12, 0
  br i1 %.not13.i, label %16, label %13

13:                                               ; preds = %10
  %14 = getelementptr inbounds nuw i8, ptr %.014.i, i64 8
  %15 = load ptr, ptr %14, align 8
  tail call void (ptr, ptr, ...) @wmem_strbuf_append_printf(ptr noundef %8, ptr noundef nonnull @.str.390, ptr noundef %15)
  br label %16

16:                                               ; preds = %13, %10
  %17 = getelementptr i8, ptr %.014.i, i64 16
  %18 = load i32, ptr %17, align 8
  %.not.i = icmp eq i32 %18, 0
  br i1 %.not.i, label %19, label %10, !llvm.loop !20

19:                                               ; preds = %16
  %20 = tail call i64 @wmem_strbuf_get_len(ptr noundef %8)
  %21 = icmp ugt i64 %20, 2
  br i1 %21, label %22, label %get_pcp_features_to_string.exit

22:                                               ; preds = %19
  %23 = add i64 %20, -2
  tail call void @wmem_strbuf_truncate(ptr noundef %8, i64 noundef %23)
  br label %get_pcp_features_to_string.exit

get_pcp_features_to_string.exit:                  ; preds = %19, %22
  %24 = tail call ptr @wmem_strbuf_get_str(ptr noundef %8)
  %25 = getelementptr inbounds nuw i8, ptr %1, i64 8
  %26 = load ptr, ptr %25, align 8
  tail call void (ptr, i32, ptr, ...) @col_append_fstr(ptr noundef %26, i32 noundef 25, ptr noundef nonnull @.str.388, ptr noundef %24)
  %27 = load i32, ptr @hf_pcp_features_flags, align 4
  %28 = load i32, ptr @ett_pcp_start_features, align 4
  %29 = tail call ptr @proto_tree_add_bitmask(ptr noundef %2, ptr noundef %0, i32 noundef %3, i32 noundef %27, i32 noundef %28, ptr noundef nonnull @dissect_pcp_partial_features.pcp_feature_flags_header_fields, i32 noundef 0)
  %30 = and i16 %5, 512
  %.not = icmp eq i16 %30, 0
  br i1 %.not, label %42, label %31

31:                                               ; preds = %get_pcp_features_to_string.exit
  %32 = getelementptr i8, ptr %1, i64 288
  %.val = load i32, ptr %32, align 8
  %33 = add i32 %.val, -44321
  %narrow.i.i = icmp ult i32 %33, 2
  br i1 %narrow.i.i, label %42, label %34

34:                                               ; preds = %31
  %35 = tail call ptr @find_conversation_pinfo(ptr noundef %1, i32 noundef 0)
  %.not.i15 = icmp eq ptr %35, null
  br i1 %.not.i15, label %36, label %37

36:                                               ; preds = %34
  tail call void (ptr, ...) @proto_report_dissector_bug(ptr noundef nonnull @.str.402, ptr noundef nonnull @.str.403, i32 noundef 607, ptr noundef nonnull @.str.404) #9
  unreachable

37:                                               ; preds = %34
  %38 = load i32, ptr @proto_pcp, align 4
  %39 = tail call ptr @conversation_get_proto_data(ptr noundef nonnull %35, i32 noundef %38)
  %.not6.i = icmp eq ptr %39, null
  br i1 %.not6.i, label %40, label %get_pcp_conversation_info.exit

40:                                               ; preds = %37
  tail call void (ptr, ...) @proto_report_dissector_bug(ptr noundef nonnull @.str.402, ptr noundef nonnull @.str.403, i32 noundef 612, ptr noundef nonnull @.str.405) #9
  unreachable

get_pcp_conversation_info.exit:                   ; preds = %37
  %41 = getelementptr inbounds nuw i8, ptr %39, i64 24
  store i8 1, ptr %41, align 8
  br label %42

42:                                               ; preds = %get_pcp_conversation_info.exit, %31, %get_pcp_features_to_string.exit
  %43 = add i32 %3, 2
  ret i32 %43
}